target datalayout = "e-m:e-p270:32:32-p271:32:32-p272:64:64-i64:64-i128:128-f80:128-n8:16:32:64-S128"
target triple = "x86_64-pc-linux-gnu"

%struct.FrameRectangle = type { i32, i32, i32, i32 }
%struct.WebPPicture = type { i32, i32, i32, i32, ptr, ptr, ptr, i32, i32, ptr, i32, [2 x i32], ptr, i32, [3 x i32], ptr, ptr, i32, ptr, ptr, i32, ptr, ptr, [3 x i32], ptr, ptr, [8 x i32], ptr, ptr, [2 x ptr] }

; Function Attrs: inlinehint nounwind uwtable
define internal void @SnapToEvenOffsets(ptr noundef %0) #4 {
  %2 = alloca ptr, align 8
  store ptr %0, ptr %2, align 8, !tbaa !52
  %3 = load ptr, ptr %2, align 8, !tbaa !52
  %4 = getelementptr inbounds nuw %struct.FrameRectangle, ptr %3, i32 0, i32 0
  %5 = load i32, ptr %4, align 4, !tbaa !53
  %6 = and i32 %5, 1
  %7 = load ptr, ptr %2, align 8, !tbaa !52
  %8 = getelementptr inbounds nuw %struct.FrameRectangle, ptr %7, i32 0, i32 2
  %9 = load i32, ptr %8, align 4, !tbaa !55
  %10 = add nsw i32 %9, %6
  store i32 %10, ptr %8, align 4, !tbaa !55
  %11 = load ptr, ptr %2, align 8, !tbaa !52
  %12 = getelementptr inbounds nuw %struct.FrameRectangle, ptr %11, i32 0, i32 1
  %13 = load i32, ptr %12, align 4, !tbaa !54
  %14 = and i32 %13, 1
  %15 = load ptr, ptr %2, align 8, !tbaa !52
  %16 = getelementptr inbounds nuw %struct.FrameRectangle, ptr %15, i32 0, i32 3
  %17 = load i32, ptr %16, align 4, !tbaa !56
  %18 = add nsw i32 %17, %14
  store i32 %18, ptr %16, align 4, !tbaa !56
  %19 = load ptr, ptr %2, align 8, !tbaa !52
  %20 = getelementptr inbounds nuw %struct.FrameRectangle, ptr %19, i32 0, i32 0
  %21 = load i32, ptr %20, align 4, !tbaa !53
  %22 = and i32 %21, -2
  store i32 %22, ptr %20, align 4, !tbaa !53
  %23 = load ptr, ptr %2, align 8, !tbaa !52
  %24 = getelementptr inbounds nuw %struct.FrameRectangle, ptr %23, i32 0, i32 1
  %25 = load i32, ptr %24, align 4, !tbaa !54
  %26 = and i32 %25, -2
  store i32 %26, ptr %24, align 4, !tbaa !54
  ret void
}

; Function Attrs: inlinehint nounwind uwtable
define internal i32 @clip(i32 noundef %0, i32 noundef %1, i32 noundef %2) #4 {
  %4 = alloca i32, align 4
  %5 = alloca i32, align 4
  %6 = alloca i32, align 4
  store i32 %0, ptr %4, align 4, !tbaa !8
  store i32 %1, ptr %5, align 4, !tbaa !8
  store i32 %2, ptr %6, align 4, !tbaa !8
  %7 = load i32, ptr %4, align 4, !tbaa !8
  %8 = load i32, ptr %5, align 4, !tbaa !8
  %9 = icmp slt i32 %7, %8
  br i1 %9, label %10, label %12

10:                                               ; preds = %3
  %11 = load i32, ptr %5, align 4, !tbaa !8
  br label %22

12:                                               ; preds = %3
  %13 = load i32, ptr %4, align 4, !tbaa !8
  %14 = load i32, ptr %6, align 4, !tbaa !8
  %15 = icmp sgt i32 %13, %14
  br i1 %15, label %16, label %18

16:                                               ; preds = %12
  %17 = load i32, ptr %6, align 4, !tbaa !8
  br label %20

18:                                               ; preds = %12
  %19 = load i32, ptr %4, align 4, !tbaa !8
  br label %20

20:                                               ; preds = %18, %16
  %21 = phi i32 [ %17, %16 ], [ %19, %18 ]
  br label %22

22:                                               ; preds = %20, %10
  %23 = phi i32 [ %11, %10 ], [ %21, %20 ]
  ret i32 %23
}

; Function Attrs: nounwind uwtable
define hidden i32 @WebPAnimEncoderRefineRect(ptr noundef %0, ptr noundef %1, i32 noundef %2, float noundef %3, ptr noundef %4, ptr noundef %5, ptr noundef %6, ptr noundef %7) #0 {
  %9 = alloca i32, align 4
  %10 = alloca ptr, align 8
  %11 = alloca ptr, align 8
  %12 = alloca i32, align 4
  %13 = alloca float, align 4
  %14 = alloca ptr, align 8
  %15 = alloca ptr, align 8
  %16 = alloca ptr, align 8
  %17 = alloca ptr, align 8
  %18 = alloca %struct.FrameRectangle, align 4
  %19 = alloca i32, align 4
  %20 = alloca i32, align 4
  %21 = alloca i32, align 4
  %22 = alloca i32, align 4
  %23 = alloca i32, align 4
  store ptr %0, ptr %10, align 8, !tbaa !51
  store ptr %1, ptr %11, align 8, !tbaa !51
  store i32 %2, ptr %12, align 4, !tbaa !8
  store float %3, ptr %13, align 4, !tbaa !67
  store ptr %4, ptr %14, align 8, !tbaa !68
  store ptr %5, ptr %15, align 8, !tbaa !68
  store ptr %6, ptr %16, align 8, !tbaa !68
  store ptr %7, ptr %17, align 8, !tbaa !68
  call void @llvm.lifetime.start.p0(i64 16, ptr %18) #8
  call void @llvm.lifetime.start.p0(i64 4, ptr %19) #8
  call void @llvm.lifetime.start.p0(i64 4, ptr %20) #8
  call void @llvm.lifetime.start.p0(i64 4, ptr %21) #8
  call void @llvm.lifetime.start.p0(i64 4, ptr %22) #8
  %24 = load ptr, ptr %10, align 8, !tbaa !51
  %25 = icmp eq ptr %24, null
  br i1 %25, label %55, label %26

26:                                               ; preds = %8
  %27 = load ptr, ptr %11, align 8, !tbaa !51
  %28 = icmp eq ptr %27, null
  br i1 %28, label %55, label %29

29:                                               ; preds = %26
  %30 = load ptr, ptr %10, align 8, !tbaa !51
  %31 = getelementptr inbounds nuw %struct.WebPPicture, ptr %30, i32 0, i32 2
  %32 = load i32, ptr %31, align 8, !tbaa !57
  %33 = load ptr, ptr %11, align 8, !tbaa !51
  %34 = getelementptr inbounds nuw %struct.WebPPicture, ptr %33, i32 0, i32 2
  %35 = load i32, ptr %34, align 8, !tbaa !57
  %36 = icmp ne i32 %32, %35
  br i1 %36, label %55, label %37

37:                                               ; preds = %29
  %38 = load ptr, ptr %10, align 8, !tbaa !51
  %39 = getelementptr inbounds nuw %struct.WebPPicture, ptr %38, i32 0, i32 3
  %40 = load i32, ptr %39, align 4, !tbaa !58
  %41 = load ptr, ptr %11, align 8, !tbaa !51
  %42 = getelementptr inbounds nuw %struct.WebPPicture, ptr %41, i32 0, i32 3
  %43 = load i32, ptr %42, align 4, !tbaa !58
  %44 = icmp ne i32 %40, %43
  br i1 %44, label %55, label %45

45:                                               ; preds = %37
  %46 = load ptr, ptr %10, align 8, !tbaa !51
  %47 = getelementptr inbounds nuw %struct.WebPPicture, ptr %46, i32 0, i32 0
  %48 = load i32, ptr %47, align 8, !tbaa !69
  %49 = icmp ne i32 %48, 0
  br i1 %49, label %50, label %55

50:                                               ; preds = %45
  %51 = load ptr, ptr %11, align 8, !tbaa !51
  %52 = getelementptr inbounds nuw %struct.WebPPicture, ptr %51, i32 0, i32 0
  %53 = load i32, ptr %52, align 8, !tbaa !69
  %54 = icmp ne i32 %53, 0
  br i1 %54, label %56, label %55

55:                                               ; preds = %50, %45, %37, %29, %26, %8
  store i32 0, ptr %9, align 4
  store i32 1, ptr %23, align 4
  br label %131

56:                                               ; preds = %50
  %57 = load ptr, ptr %14, align 8, !tbaa !68
  %58 = load i32, ptr %57, align 4, !tbaa !8
  %59 = load ptr, ptr %16, align 8, !tbaa !68
  %60 = load i32, ptr %59, align 4, !tbaa !8
  %61 = add nsw i32 %58, %60
  %62 = load ptr, ptr %11, align 8, !tbaa !51
  %63 = getelementptr inbounds nuw %struct.WebPPicture, ptr %62, i32 0, i32 2
  %64 = load i32, ptr %63, align 8, !tbaa !57
  %65 = call i32 @clip(i32 noundef %61, i32 noundef 0, i32 noundef %64)
  store i32 %65, ptr %19, align 4, !tbaa !8
  %66 = load ptr, ptr %14, align 8, !tbaa !68
  %67 = load i32, ptr %66, align 4, !tbaa !8
  %68 = load ptr, ptr %11, align 8, !tbaa !51
  %69 = getelementptr inbounds nuw %struct.WebPPicture, ptr %68, i32 0, i32 2
  %70 = load i32, ptr %69, align 8, !tbaa !57
  %71 = sub nsw i32 %70, 1
  %72 = call i32 @clip(i32 noundef %67, i32 noundef 0, i32 noundef %71)
  store i32 %72, ptr %20, align 4, !tbaa !8
  %73 = load ptr, ptr %15, align 8, !tbaa !68
  %74 = load i32, ptr %73, align 4, !tbaa !8
  %75 = load ptr, ptr %17, align 8, !tbaa !68
  %76 = load i32, ptr %75, align 4, !tbaa !8
  %77 = add nsw i32 %74, %76
  %78 = load ptr, ptr %11, align 8, !tbaa !51
  %79 = getelementptr inbounds nuw %struct.WebPPicture, ptr %78, i32 0, i32 3
  %80 = load i32, ptr %79, align 4, !tbaa !58
  %81 = call i32 @clip(i32 noundef %77, i32 noundef 0, i32 noundef %80)
  store i32 %81, ptr %21, align 4, !tbaa !8
  %82 = load ptr, ptr %15, align 8, !tbaa !68
  %83 = load i32, ptr %82, align 4, !tbaa !8
  %84 = load ptr, ptr %11, align 8, !tbaa !51
  %85 = getelementptr inbounds nuw %struct.WebPPicture, ptr %84, i32 0, i32 3
  %86 = load i32, ptr %85, align 4, !tbaa !58
  %87 = sub nsw i32 %86, 1
  %88 = call i32 @clip(i32 noundef %83, i32 noundef 0, i32 noundef %87)
  store i32 %88, ptr %22, align 4, !tbaa !8
  %89 = load i32, ptr %20, align 4, !tbaa !8
  %90 = getelementptr inbounds nuw %struct.FrameRectangle, ptr %18, i32 0, i32 0
  store i32 %89, ptr %90, align 4, !tbaa !53
  %91 = load i32, ptr %22, align 4, !tbaa !8
  %92 = getelementptr inbounds nuw %struct.FrameRectangle, ptr %18, i32 0, i32 1
  store i32 %91, ptr %92, align 4, !tbaa !54
  %93 = load i32, ptr %19, align 4, !tbaa !8
  %94 = load i32, ptr %20, align 4, !tbaa !8
  %95 = sub nsw i32 %93, %94
  %96 = load ptr, ptr %11, align 8, !tbaa !51
  %97 = getelementptr inbounds nuw %struct.WebPPicture, ptr %96, i32 0, i32 2
  %98 = load i32, ptr %97, align 8, !tbaa !57
  %99 = getelementptr inbounds nuw %struct.FrameRectangle, ptr %18, i32 0, i32 0
  %100 = load i32, ptr %99, align 4, !tbaa !53
  %101 = sub nsw i32 %98, %100
  %102 = call i32 @clip(i32 noundef %95, i32 noundef 0, i32 noundef %101)
  %103 = getelementptr inbounds nuw %struct.FrameRectangle, ptr %18, i32 0, i32 2
  store i32 %102, ptr %103, align 4, !tbaa !55
  %104 = load i32, ptr %21, align 4, !tbaa !8
  %105 = load i32, ptr %22, align 4, !tbaa !8
  %106 = sub nsw i32 %104, %105
  %107 = load ptr, ptr %11, align 8, !tbaa !51
  %108 = getelementptr inbounds nuw %struct.WebPPicture, ptr %107, i32 0, i32 3
  %109 = load i32, ptr %108, align 4, !tbaa !58
  %110 = getelementptr inbounds nuw %struct.FrameRectangle, ptr %18, i32 0, i32 1
  %111 = load i32, ptr %110, align 4, !tbaa !54
  %112 = sub nsw i32 %109, %111
  %113 = call i32 @clip(i32 noundef %106, i32 noundef 0, i32 noundef %112)
  %114 = getelementptr inbounds nuw %struct.FrameRectangle, ptr %18, i32 0, i32 3
  store i32 %113, ptr %114, align 4, !tbaa !56
  %115 = load ptr, ptr %10, align 8, !tbaa !51
  %116 = load ptr, ptr %11, align 8, !tbaa !51
  %117 = load i32, ptr %12, align 4, !tbaa !8
  %118 = load float, ptr %13, align 4, !tbaa !67
  call void @MinimizeChangeRectangle(ptr noundef %115, ptr noundef %116, ptr noundef %18, i32 noundef %117, float noundef %118)
  call void @SnapToEvenOffsets(ptr noundef %18)
  %119 = getelementptr inbounds nuw %struct.FrameRectangle, ptr %18, i32 0, i32 0
  %120 = load i32, ptr %119, align 4, !tbaa !53
  %121 = load ptr, ptr %14, align 8, !tbaa !68
  store i32 %120, ptr %121, align 4, !tbaa !8
  %122 = getelementptr inbounds nuw %struct.FrameRectangle, ptr %18, i32 0, i32 1
  %123 = load i32, ptr %122, align 4, !tbaa !54
  %124 = load ptr, ptr %15, align 8, !tbaa !68
  store i32 %123, ptr %124, align 4, !tbaa !8
  %125 = getelementptr inbounds nuw %struct.FrameRectangle, ptr %18, i32 0, i32 2
  %126 = load i32, ptr %125, align 4, !tbaa !55
  %127 = load ptr, ptr %16, align 8, !tbaa !68
  store i32 %126, ptr %127, align 4, !tbaa !8
  %128 = getelementptr inbounds nuw %struct.FrameRectangle, ptr %18, i32 0, i32 3
  %129 = load i32, ptr %128, align 4, !tbaa !56
  %130 = load ptr, ptr %17, align 8, !tbaa !68
  store i32 %129, ptr %130, align 4, !tbaa !8
  store i32 1, ptr %9, align 4
  store i32 1, ptr %23, align 4
  br label %131

131:                                              ; preds = %56, %55
  call void @llvm.lifetime.end.p0(i64 4, ptr %22) #8
  call void @llvm.lifetime.end.p0(i64 4, ptr %21) #8
  call void @llvm.lifetime.end.p0(i64 4, ptr %20) #8
  call void @llvm.lifetime.end.p0(i64 4, ptr %19) #8
  call void @llvm.lifetime.end.p0(i64 16, ptr %18) #8
  %132 = load i32, ptr %9, align 4
  ret i32 %132
}