; Function Attrs: nounwind uwtable
define hidden range(i32 0, 2) i32 @WebPAnimEncoderRefineRect(ptr noundef readonly captures(address_is_null) %0, ptr noundef readonly captures(address_is_null) %1, i32 noundef %2, float noundef %3, ptr noundef captures(none) %4, ptr noundef captures(none) %5, ptr noundef captures(none) %6, ptr noundef captures(none) %7) local_unnamed_addr #1 {
  %9 = alloca %struct.FrameRectangle, align 4
  call void @llvm.lifetime.start.p0(i64 16, ptr nonnull %9) #14
  %10 = icmp eq ptr %0, null
  %11 = icmp eq ptr %1, null
  %or.cond = or i1 %10, %11
  br i1 %or.cond, label %70, label %12

12:                                               ; preds = %8
  %13 = getelementptr inbounds nuw i8, ptr %0, i64 8
  %14 = load i32, ptr %13, align 8, !tbaa !53
  %15 = getelementptr inbounds nuw i8, ptr %1, i64 8
  %16 = load i32, ptr %15, align 8, !tbaa !53
  %.not = icmp eq i32 %14, %16
  br i1 %.not, label %17, label %70

17:                                               ; preds = %12
  %18 = getelementptr inbounds nuw i8, ptr %0, i64 12
  %19 = load i32, ptr %18, align 4, !tbaa !54
  %20 = getelementptr inbounds nuw i8, ptr %1, i64 12
  %21 = load i32, ptr %20, align 4, !tbaa !54
  %.not38 = icmp eq i32 %19, %21
  br i1 %.not38, label %22, label %70

22:                                               ; preds = %17
  %23 = load i32, ptr %0, align 8, !tbaa !59
  %.not39 = icmp eq i32 %23, 0
  br i1 %.not39, label %70, label %24

24:                                               ; preds = %22
  %25 = load i32, ptr %1, align 8, !tbaa !59
  %.not40 = icmp eq i32 %25, 0
  br i1 %.not40, label %70, label %26

26:                                               ; preds = %24
  %27 = load i32, ptr %4, align 4, !tbaa !16
  %28 = load i32, ptr %6, align 4, !tbaa !16
  %29 = add nsw i32 %28, %27
  %30 = icmp slt i32 %29, 0
  %31 = tail call i32 @llvm.smin.i32(i32 %29, i32 %14)
  %32 = select i1 %30, i32 0, i32 %31
  %33 = add nsw i32 %14, -1
  %34 = icmp slt i32 %27, 0
  %35 = tail call i32 @llvm.smin.i32(i32 %27, i32 %33)
  %36 = select i1 %34, i32 0, i32 %35
  %37 = load i32, ptr %5, align 4, !tbaa !16
  %38 = load i32, ptr %7, align 4, !tbaa !16
  %39 = add nsw i32 %38, %37
  %40 = icmp slt i32 %39, 0
  %41 = tail call i32 @llvm.smin.i32(i32 %39, i32 %19)
  %42 = select i1 %40, i32 0, i32 %41
  %43 = add nsw i32 %19, -1
  %44 = icmp slt i32 %37, 0
  %45 = tail call i32 @llvm.smin.i32(i32 %37, i32 %43)
  %46 = select i1 %44, i32 0, i32 %45
  store i32 %36, ptr %9, align 4, !tbaa !45
  %47 = getelementptr inbounds nuw i8, ptr %9, i64 4
  store i32 %46, ptr %47, align 4, !tbaa !46
  %48 = sub nsw i32 %32, %36
  %49 = sub nsw i32 %14, %36
  %50 = icmp slt i32 %48, 0
  %51 = tail call i32 @llvm.smin.i32(i32 %48, i32 %49)
  %52 = select i1 %50, i32 0, i32 %51
  %53 = getelementptr inbounds nuw i8, ptr %9, i64 8
  store i32 %52, ptr %53, align 4, !tbaa !47
  %54 = sub nsw i32 %42, %46
  %55 = sub nsw i32 %19, %46
  %56 = icmp slt i32 %54, 0
  %57 = tail call i32 @llvm.smin.i32(i32 %54, i32 %55)
  %58 = select i1 %56, i32 0, i32 %57
  %59 = getelementptr inbounds nuw i8, ptr %9, i64 12
  store i32 %58, ptr %59, align 4, !tbaa !48
  call fastcc void @MinimizeChangeRectangle(ptr noundef %0, ptr noundef %1, ptr noundef %9, i32 noundef %2, float noundef %3)
  %60 = load i32, ptr %9, align 4, !tbaa !45
  %61 = and i32 %60, 1
  %62 = load i32, ptr %53, align 4, !tbaa !47
  %63 = add nsw i32 %62, %61
  %64 = load i32, ptr %47, align 4, !tbaa !46
  %65 = and i32 %64, 1
  %66 = load i32, ptr %59, align 4, !tbaa !48
  %67 = add nsw i32 %66, %65
  %68 = and i32 %60, -2
  %69 = and i32 %64, -2
  store i32 %68, ptr %4, align 4, !tbaa !16
  store i32 %69, ptr %5, align 4, !tbaa !16
  store i32 %63, ptr %6, align 4, !tbaa !16
  store i32 %67, ptr %7, align 4, !tbaa !16
  br label %70

70:                                               ; preds = %8, %12, %17, %22, %24, %26
  %.0 = phi i32 [ 1, %26 ], [ 0, %24 ], [ 0, %22 ], [ 0, %17 ], [ 0, %12 ], [ 0, %8 ]
  call void @llvm.lifetime.end.p0(i64 16, ptr nonnull %9) #14
  ret i32 %.0
}